; Function Attrs: mustprogress uwtable
define void @_ZN5Yosys10log_moduleEPNS_5RTLIL6ModuleENSt7__cxx1112basic_stringIcSt11char_traitsIcESaIcEEE(ptr noundef %0, ptr noundef %1) local_unnamed_addr #4 personality ptr @__gxx_personality_v0 {
  %3 = alloca %"class.std::__cxx11::basic_stringstream", align 8
  %4 = alloca %"class.std::__cxx11::basic_string", align 8
  %5 = alloca %"class.std::__cxx11::basic_string", align 8
  call void @_ZNSt7__cxx1118basic_stringstreamIcSt11char_traitsIcESaIcEEC1Ev(ptr noundef nonnull align 8 dereferenceable(128) %3)
  invoke void @_ZNSt7__cxx1112basic_stringIcSt11char_traitsIcESaIcEEC1ERKS4_(ptr noundef nonnull align 8 dereferenceable(32) %4, ptr noundef nonnull align 8 dereferenceable(32) %1)
          to label %6 unwind label %14

6:                                                ; preds = %2
  %7 = getelementptr inbounds i8, ptr %3, i64 16
  %8 = getelementptr inbounds i8, ptr %0, i64 72
  %9 = load ptr, ptr %8, align 8
  invoke void @_ZN5Yosys13RTLIL_BACKEND11dump_moduleERSoNSt7__cxx1112basic_stringIcSt11char_traitsIcESaIcEEEPNS_5RTLIL6ModuleEPNS8_6DesignEbbb(ptr noundef nonnull align 8 dereferenceable(8) %7, ptr noundef nonnull %4, ptr noundef nonnull %0, ptr noundef %9, i1 noundef zeroext false, i1 noundef zeroext true, i1 noundef zeroext false)
          to label %10 unwind label %16

10:                                               ; preds = %6
  call void @_ZNSt7__cxx1112basic_stringIcSt11char_traitsIcESaIcEED1Ev(ptr noundef nonnull align 8 dereferenceable(32) %4) #27
  invoke void @_ZNKSt7__cxx1118basic_stringstreamIcSt11char_traitsIcESaIcEE3strEv(ptr dead_on_unwind nonnull writable sret(%"class.std::__cxx11::basic_string") align 8 %5, ptr noundef nonnull align 8 dereferenceable(128) %3)
          to label %11 unwind label %14

11:                                               ; preds = %10
  %12 = call noundef ptr @_ZNKSt7__cxx1112basic_stringIcSt11char_traitsIcESaIcEE5c_strEv(ptr noundef nonnull align 8 dereferenceable(32) %5) #27
  invoke void (ptr, ...) @_ZN5Yosys3logEPKcz(ptr noundef nonnull @.str.19, ptr noundef %12)
          to label %13 unwind label %18

13:                                               ; preds = %11
  call void @_ZNSt7__cxx1112basic_stringIcSt11char_traitsIcESaIcEED1Ev(ptr noundef nonnull align 8 dereferenceable(32) %5) #27
  call void @_ZNSt7__cxx1118basic_stringstreamIcSt11char_traitsIcESaIcEED1Ev(ptr noundef nonnull align 8 dereferenceable(128) %3) #27
  ret void

14:                                               ; preds = %10, %2
  %15 = landingpad { ptr, i32 }
          cleanup
  br label %20

16:                                               ; preds = %6
  %17 = landingpad { ptr, i32 }
          cleanup
  call void @_ZNSt7__cxx1112basic_stringIcSt11char_traitsIcESaIcEED1Ev(ptr noundef nonnull align 8 dereferenceable(32) %4) #27
  br label %20

18:                                               ; preds = %11
  %19 = landingpad { ptr, i32 }
          cleanup
  call void @_ZNSt7__cxx1112basic_stringIcSt11char_traitsIcESaIcEED1Ev(ptr noundef nonnull align 8 dereferenceable(32) %5) #27
  br label %20

20:                                               ; preds = %18, %16, %14
  %.pn = phi { ptr, i32 } [ %19, %18 ], [ %15, %14 ], [ %17, %16 ]
  call void @_ZNSt7__cxx1118basic_stringstreamIcSt11char_traitsIcESaIcEED1Ev(ptr noundef nonnull align 8 dereferenceable(128) %3) #27
  resume { ptr, i32 } %.pn
}